target datalayout = "e-m:e-p270:32:32-p271:32:32-p272:64:64-i64:64-i128:128-f80:128-n8:16:32:64-S128"
target triple = "x86_64-pc-linux-gnu"

; Function Attrs: mustprogress nounwind uwtable
define hidden void @_ZN11OpenImageIO6v3_1_09TIFFInput11bit_convertEiPKhiPvi(ptr noundef nonnull align 8 dereferenceable(384) %0, i32 noundef %1, ptr noundef %2, i32 noundef %3, ptr noundef %4, i32 noundef %5) #7 align 2 {
  %7 = alloca ptr, align 8
  %8 = alloca i32, align 4
  %9 = alloca ptr, align 8
  %10 = alloca i32, align 4
  %11 = alloca ptr, align 8
  %12 = alloca i32, align 4
  %13 = alloca i32, align 4
  %14 = alloca i32, align 4
  %15 = alloca i32, align 4
  %16 = alloca i32, align 4
  %17 = alloca i64, align 8
  %18 = alloca i32, align 4
  %19 = alloca i32, align 4
  %20 = alloca i32, align 4
  %21 = alloca i32, align 4
  store ptr %0, ptr %7, align 8, !tbaa !24
  store i32 %1, ptr %8, align 4, !tbaa !22
  store ptr %2, ptr %9, align 8, !tbaa !18
  store i32 %3, ptr %10, align 4, !tbaa !22
  store ptr %4, ptr %11, align 8, !tbaa !128
  store i32 %5, ptr %12, align 4, !tbaa !22
  call void @llvm.lifetime.start.p0(i64 4, ptr %13) #3
  %22 = load i32, ptr %10, align 4, !tbaa !22
  %23 = shl i32 1, %22
  %24 = sub nsw i32 %23, 1
  store i32 %24, ptr %13, align 4, !tbaa !22
  call void @llvm.lifetime.start.p0(i64 4, ptr %14) #3
  store i32 0, ptr %14, align 4, !tbaa !22
  call void @llvm.lifetime.start.p0(i64 4, ptr %15) #3
  store i32 0, ptr %15, align 4, !tbaa !22
  call void @llvm.lifetime.start.p0(i64 4, ptr %16) #3
  store i32 0, ptr %16, align 4, !tbaa !22
  br label %25

25:                                               ; preds = %137, %6
  %26 = load i32, ptr %16, align 4, !tbaa !22
  %27 = load i32, ptr %8, align 4, !tbaa !22
  %28 = icmp slt i32 %26, %27
  br i1 %28, label %30, label %29

29:                                               ; preds = %25
  call void @llvm.lifetime.end.p0(i64 4, ptr %16) #3
  br label %140

30:                                               ; preds = %25
  call void @llvm.lifetime.start.p0(i64 8, ptr %17) #3
  store i64 0, ptr %17, align 8, !tbaa !273
  call void @llvm.lifetime.start.p0(i64 4, ptr %18) #3
  store i32 0, ptr %18, align 4, !tbaa !22
  br label %31

31:                                               ; preds = %95, %30
  %32 = load i32, ptr %18, align 4, !tbaa !22
  %33 = load i32, ptr %10, align 4, !tbaa !22
  %34 = icmp slt i32 %32, %33
  br i1 %34, label %35, label %96

35:                                               ; preds = %31
  call void @llvm.lifetime.start.p0(i64 4, ptr %19) #3
  %36 = load i32, ptr %10, align 4, !tbaa !22
  %37 = load i32, ptr %18, align 4, !tbaa !22
  %38 = sub nsw i32 %36, %37
  store i32 %38, ptr %19, align 4, !tbaa !22
  call void @llvm.lifetime.start.p0(i64 4, ptr %20) #3
  %39 = load i32, ptr %15, align 4, !tbaa !22
  %40 = sub nsw i32 8, %39
  store i32 %40, ptr %20, align 4, !tbaa !22
  %41 = load i32, ptr %20, align 4, !tbaa !22
  %42 = load i32, ptr %19, align 4, !tbaa !22
  %43 = icmp sle i32 %41, %42
  br i1 %43, label %44, label %67

44:                                               ; preds = %35
  %45 = load i32, ptr %20, align 4, !tbaa !22
  %46 = load i64, ptr %17, align 8, !tbaa !273
  %47 = zext i32 %45 to i64
  %48 = shl i64 %46, %47
  store i64 %48, ptr %17, align 8, !tbaa !273
  %49 = load ptr, ptr %9, align 8, !tbaa !18
  %50 = load i32, ptr %14, align 4, !tbaa !22
  %51 = sext i32 %50 to i64
  %52 = getelementptr inbounds i8, ptr %49, i64 %51
  %53 = load i8, ptr %52, align 1, !tbaa !137
  %54 = zext i8 %53 to i32
  %55 = load i32, ptr %20, align 4, !tbaa !22
  %56 = shl i32 -1, %55
  %57 = xor i32 %56, -1
  %58 = and i32 %54, %57
  %59 = zext i32 %58 to i64
  %60 = load i64, ptr %17, align 8, !tbaa !273
  %61 = or i64 %60, %59
  store i64 %61, ptr %17, align 8, !tbaa !273
  %62 = load i32, ptr %14, align 4, !tbaa !22
  %63 = add nsw i32 %62, 1
  store i32 %63, ptr %14, align 4, !tbaa !22
  store i32 0, ptr %15, align 4, !tbaa !22
  %64 = load i32, ptr %20, align 4, !tbaa !22
  %65 = load i32, ptr %18, align 4, !tbaa !22
  %66 = add nsw i32 %65, %64
  store i32 %66, ptr %18, align 4, !tbaa !22
  br label %95

67:                                               ; preds = %35
  %68 = load i32, ptr %19, align 4, !tbaa !22
  %69 = load i64, ptr %17, align 8, !tbaa !273
  %70 = zext i32 %68 to i64
  %71 = shl i64 %69, %70
  store i64 %71, ptr %17, align 8, !tbaa !273
  call void @llvm.lifetime.start.p0(i64 4, ptr %21) #3
  %72 = load i32, ptr %15, align 4, !tbaa !22
  %73 = sub nsw i32 8, %72
  %74 = load i32, ptr %19, align 4, !tbaa !22
  %75 = sub nsw i32 %73, %74
  store i32 %75, ptr %21, align 4, !tbaa !22
  %76 = load ptr, ptr %9, align 8, !tbaa !18
  %77 = load i32, ptr %14, align 4, !tbaa !22
  %78 = sext i32 %77 to i64
  %79 = getelementptr inbounds i8, ptr %76, i64 %78
  %80 = load i8, ptr %79, align 1, !tbaa !137
  %81 = zext i8 %80 to i32
  %82 = load i32, ptr %21, align 4, !tbaa !22
  %83 = ashr i32 %81, %82
  %84 = load i32, ptr %19, align 4, !tbaa !22
  %85 = shl i32 -1, %84
  %86 = xor i32 %85, -1
  %87 = and i32 %83, %86
  %88 = zext i32 %87 to i64
  %89 = load i64, ptr %17, align 8, !tbaa !273
  %90 = or i64 %89, %88
  store i64 %90, ptr %17, align 8, !tbaa !273
  %91 = load i32, ptr %19, align 4, !tbaa !22
  %92 = load i32, ptr %15, align 4, !tbaa !22
  %93 = add nsw i32 %92, %91
  store i32 %93, ptr %15, align 4, !tbaa !22
  %94 = load i32, ptr %10, align 4, !tbaa !22
  store i32 %94, ptr %18, align 4, !tbaa !22
  call void @llvm.lifetime.end.p0(i64 4, ptr %21) #3
  br label %95

95:                                               ; preds = %67, %44
  call void @llvm.lifetime.end.p0(i64 4, ptr %20) #3
  call void @llvm.lifetime.end.p0(i64 4, ptr %19) #3
  br label %31, !llvm.loop !275

96:                                               ; preds = %31
  %97 = load i32, ptr %12, align 4, !tbaa !22
  %98 = icmp eq i32 %97, 8
  br i1 %98, label %99, label %110

99:                                               ; preds = %96
  %100 = load i64, ptr %17, align 8, !tbaa !273
  %101 = mul nsw i64 %100, 255
  %102 = load i32, ptr %13, align 4, !tbaa !22
  %103 = zext i32 %102 to i64
  %104 = sdiv i64 %101, %103
  %105 = trunc i64 %104 to i8
  %106 = load ptr, ptr %11, align 8, !tbaa !128
  %107 = load i32, ptr %16, align 4, !tbaa !22
  %108 = sext i32 %107 to i64
  %109 = getelementptr inbounds i8, ptr %106, i64 %108
  store i8 %105, ptr %109, align 1, !tbaa !137
  br label %136

110:                                              ; preds = %96
  %111 = load i32, ptr %12, align 4, !tbaa !22
  %112 = icmp eq i32 %111, 16
  br i1 %112, label %113, label %124

113:                                              ; preds = %110
  %114 = load i64, ptr %17, align 8, !tbaa !273
  %115 = mul nsw i64 %114, 65535
  %116 = load i32, ptr %13, align 4, !tbaa !22
  %117 = zext i32 %116 to i64
  %118 = sdiv i64 %115, %117
  %119 = trunc i64 %118 to i16
  %120 = load ptr, ptr %11, align 8, !tbaa !128
  %121 = load i32, ptr %16, align 4, !tbaa !22
  %122 = sext i32 %121 to i64
  %123 = getelementptr inbounds i16, ptr %120, i64 %122
  store i16 %119, ptr %123, align 2, !tbaa !110
  br label %135

124:                                              ; preds = %110
  %125 = load i64, ptr %17, align 8, !tbaa !273
  %126 = mul nsw i64 %125, 4294967295
  %127 = load i32, ptr %13, align 4, !tbaa !22
  %128 = zext i32 %127 to i64
  %129 = sdiv i64 %126, %128
  %130 = trunc i64 %129 to i32
  %131 = load ptr, ptr %11, align 8, !tbaa !128
  %132 = load i32, ptr %16, align 4, !tbaa !22
  %133 = sext i32 %132 to i64
  %134 = getelementptr inbounds i32, ptr %131, i64 %133
  store i32 %130, ptr %134, align 4, !tbaa !22
  br label %135

135:                                              ; preds = %124, %113
  br label %136

136:                                              ; preds = %135, %99
  call void @llvm.lifetime.end.p0(i64 4, ptr %18) #3
  call void @llvm.lifetime.end.p0(i64 8, ptr %17) #3
  br label %137

137:                                              ; preds = %136
  %138 = load i32, ptr %16, align 4, !tbaa !22
  %139 = add nsw i32 %138, 1
  store i32 %139, ptr %16, align 4, !tbaa !22
  br label %25, !llvm.loop !276

140:                                              ; preds = %29
  call void @llvm.lifetime.end.p0(i64 4, ptr %15) #3
  call void @llvm.lifetime.end.p0(i64 4, ptr %14) #3
  call void @llvm.lifetime.end.p0(i64 4, ptr %13) #3
  ret void
}