; Function Attrs: mustprogress nofree norecurse nosync nounwind memory(argmem: readwrite) uwtable
define hidden void @_ZN11OpenImageIO6v3_1_09TIFFInput11bit_convertEiPKhiPvi(ptr noundef nonnull readnone align 8 captures(none) dereferenceable(384) %0, i32 noundef %1, ptr noundef readonly captures(none) %2, i32 noundef %3, ptr noundef writeonly captures(none) %4, i32 noundef %5) local_unnamed_addr #20 align 2 {
  %7 = icmp sgt i32 %1, 0
  br i1 %7, label %.preheader.lr.ph, label %._crit_edge67

.preheader.lr.ph:                                 ; preds = %6
  %notmask = shl nsw i32 -1, %3
  %8 = xor i32 %notmask, -1
  %9 = icmp sgt i32 %3, 0
  %10 = zext nneg i32 %8 to i64
  br i1 %9, label %.preheader.us.preheader, label %.preheader.lr.ph.split

.preheader.us.preheader:                          ; preds = %.preheader.lr.ph
  %wide.trip.count = zext nneg i32 %1 to i64
  br label %.preheader.us

.preheader.us:                                    ; preds = %.preheader.us.preheader, %26
  %indvars.iv = phi i64 [ 0, %.preheader.us.preheader ], [ %indvars.iv.next, %26 ]
  %.066.us = phi i32 [ 0, %.preheader.us.preheader ], [ %.2.us86, %26 ]
  %.04565.us = phi i32 [ 0, %.preheader.us.preheader ], [ %.247.us85, %26 ]
  br label %27

11:                                               ; preds = %._crit_edge.us
  %12 = mul nsw i64 %.152.us84, 65535
  %13 = sdiv i64 %12, %10
  %14 = trunc i64 %13 to i16
  %15 = getelementptr inbounds nuw i16, ptr %4, i64 %indvars.iv
  store i16 %14, ptr %15, align 2, !tbaa !95
  br label %26

16:                                               ; preds = %._crit_edge.us
  %17 = mul nsw i64 %.152.us84, 255
  %18 = sdiv i64 %17, %10
  %19 = trunc i64 %18 to i8
  %20 = getelementptr inbounds nuw i8, ptr %4, i64 %indvars.iv
  store i8 %19, ptr %20, align 1, !tbaa !13
  br label %26

21:                                               ; preds = %._crit_edge.us
  %22 = mul nsw i64 %.152.us84, 4294967295
  %23 = sdiv i64 %22, %10
  %24 = trunc i64 %23 to i32
  %25 = getelementptr inbounds nuw i32, ptr %4, i64 %indvars.iv
  store i32 %24, ptr %25, align 4, !tbaa !120
  br label %26

26:                                               ; preds = %21, %16, %11
  %indvars.iv.next = add nuw nsw i64 %indvars.iv, 1
  %exitcond.not = icmp eq i64 %indvars.iv.next, %wide.trip.count
  br i1 %exitcond.not, label %._crit_edge67, label %.preheader.us, !llvm.loop !226

27:                                               ; preds = %.preheader.us, %44
  %.161.us = phi i32 [ %.066.us, %.preheader.us ], [ %56, %44 ]
  %.14660.us = phi i32 [ %.04565.us, %.preheader.us ], [ 0, %44 ]
  %.04959.us = phi i32 [ 0, %.preheader.us ], [ %57, %44 ]
  %.05158.us = phi i64 [ 0, %.preheader.us ], [ %55, %44 ]
  %28 = sub nsw i32 %3, %.04959.us
  %29 = sub nsw i32 8, %.14660.us
  %.not.us = icmp sgt i32 %29, %28
  br i1 %.not.us, label %.thread, label %44

.thread:                                          ; preds = %27
  %30 = zext nneg i32 %28 to i64
  %31 = shl i64 %.05158.us, %30
  %32 = sub nsw i32 %29, %28
  %33 = sext i32 %.161.us to i64
  %34 = getelementptr inbounds i8, ptr %2, i64 %33
  %35 = load i8, ptr %34, align 1, !tbaa !13
  %36 = zext i8 %35 to i32
  %37 = lshr i32 %36, %32
  %38 = shl nsw i32 -1, %28
  %39 = xor i32 %38, -1
  %40 = and i32 %37, %39
  %41 = zext nneg i32 %40 to i64
  %42 = or i64 %31, %41
  %43 = add nsw i32 %.14660.us, %28
  br label %._crit_edge.us

44:                                               ; preds = %27
  %45 = zext nneg i32 %29 to i64
  %46 = shl i64 %.05158.us, %45
  %47 = sext i32 %.161.us to i64
  %48 = getelementptr inbounds i8, ptr %2, i64 %47
  %49 = load i8, ptr %48, align 1, !tbaa !13
  %50 = zext i8 %49 to i32
  %51 = shl nsw i32 -1, %29
  %52 = xor i32 %51, -1
  %53 = and i32 %50, %52
  %54 = zext nneg i32 %53 to i64
  %55 = or i64 %46, %54
  %56 = add nsw i32 %.161.us, 1
  %57 = add nsw i32 %29, %.04959.us
  %58 = icmp slt i32 %57, %3
  br i1 %58, label %27, label %._crit_edge.us, !llvm.loop !227

._crit_edge.us:                                   ; preds = %44, %.thread
  %.2.us86 = phi i32 [ %.161.us, %.thread ], [ %56, %44 ]
  %.247.us85 = phi i32 [ %43, %.thread ], [ 0, %44 ]
  %.152.us84 = phi i64 [ %42, %.thread ], [ %55, %44 ]
  switch i32 %5, label %21 [
    i32 8, label %16
    i32 16, label %11
  ]

.preheader.lr.ph.split:                           ; preds = %.preheader.lr.ph
  switch i32 %5, label %.preheader.preheader [
    i32 8, label %.preheader.us68.preheader
    i32 16, label %.preheader.us71.preheader
  ]

.preheader.us71.preheader:                        ; preds = %.preheader.lr.ph.split
  %59 = shl nuw i32 %1, 1
  %60 = zext i32 %59 to i64
  br label %._crit_edge67.sink.split

.preheader.us68.preheader:                        ; preds = %.preheader.lr.ph.split
  %61 = zext nneg i32 %1 to i64
  br label %._crit_edge67.sink.split

.preheader.preheader:                             ; preds = %.preheader.lr.ph.split
  %62 = zext nneg i32 %1 to i64
  %63 = shl nuw nsw i64 %62, 2
  br label %._crit_edge67.sink.split

._crit_edge67.sink.split:                         ; preds = %.preheader.preheader, %.preheader.us68.preheader, %.preheader.us71.preheader
  %.sink = phi i64 [ %60, %.preheader.us71.preheader ], [ %61, %.preheader.us68.preheader ], [ %63, %.preheader.preheader ]
  tail call void @llvm.memset.p0.i64(ptr align 1 %4, i8 0, i64 %.sink, i1 false), !tbaa !13
  br label %._crit_edge67

._crit_edge67:                                    ; preds = %26, %._crit_edge67.sink.split, %6
  ret void
}